target datalayout = "e-m:e-p270:32:32-p271:32:32-p272:64:64-i64:64-i128:128-f80:128-n8:16:32:64-S128"
target triple = "x86_64-pc-linux-gnu"

%struct.uv_loop_s = type { ptr, i32, %struct.uv__queue, %union.anon, ptr, i32, i64, i32, %struct.uv__queue, %struct.uv__queue, ptr, i32, i32, %struct.uv__queue, %union.pthread_mutex_t, %struct.uv_async_s, %union.pthread_rwlock_t, ptr, %struct.uv__queue, %struct.uv__queue, %struct.uv__queue, %struct.uv__queue, %struct.uv__queue, ptr, %struct.uv__io_s, i32, %struct.anon, i64, i64, [2 x i32], %struct.uv__io_s, %struct.uv_signal_s, i32, %struct.uv__io_s, ptr, i32 }
%union.anon = type { ptr }
%union.pthread_mutex_t = type { %struct.__pthread_mutex_s }
%struct.__pthread_mutex_s = type { i32, i32, i32, i32, i32, i16, i16, %struct.__pthread_internal_list }
%struct.__pthread_internal_list = type { ptr, ptr }
%struct.uv_async_s = type { ptr, ptr, i32, ptr, %struct.uv__queue, %union.anon.0, ptr, i32, ptr, %struct.uv__queue, i32 }
%union.anon.0 = type { [4 x ptr] }
%union.pthread_rwlock_t = type { %struct.__pthread_rwlock_arch_t }
%struct.__pthread_rwlock_arch_t = type { i32, i32, i32, i32, i32, i32, i32, i32, i8, [7 x i8], i64, i32 }
%struct.uv__queue = type { ptr, ptr }
%struct.anon = type { ptr, i32 }
%struct.uv_signal_s = type { ptr, ptr, i32, ptr, %struct.uv__queue, %union.anon.1, ptr, i32, ptr, i32, %struct.anon.2, i32, i32 }
%union.anon.1 = type { [4 x ptr] }
%struct.anon.2 = type { ptr, ptr, ptr, i32 }
%struct.uv__io_s = type { ptr, %struct.uv__queue, %struct.uv__queue, i32, i32, i32 }
%struct.uv__iou = type { ptr, ptr, i32, ptr, ptr, ptr, i32, ptr, ptr, ptr, i64, i64, i64, i64, i32, i32 }
%struct.uv_fs_s = type { ptr, i32, [6 x ptr], i32, ptr, ptr, i64, ptr, ptr, %struct.uv_stat_t, ptr, i32, i32, i32, i32, ptr, i64, i32, i32, double, double, %struct.uv__work, [4 x %struct.uv_buf_t] }
%struct.uv_stat_t = type { i64, i64, i64, i64, i64, i64, i64, i64, i64, i64, i64, i64, %struct.uv_timespec_t, %struct.uv_timespec_t, %struct.uv_timespec_t, %struct.uv_timespec_t }
%struct.uv_timespec_t = type { i64, i64 }
%struct.uv__work = type { ptr, ptr, ptr, %struct.uv__queue }
%struct.uv_buf_t = type { ptr, i64 }
%struct.uv__io_uring_sqe = type { i8, i8, i16, i32, %union.anon.3, %union.anon.4, i32, %union.anon.5, i64, %union.anon.6 }
%union.anon.3 = type { i64 }
%union.anon.4 = type { i64 }
%union.anon.5 = type { i32 }
%union.anon.6 = type { [3 x i64] }

@uv__use_io_uring.use_io_uring = internal global i32 0, align 4
@.str.24 = private unnamed_addr constant [16 x i8] c"UV_USE_IO_URING\00", align 1

; Function Attrs: inlinehint nounwind willreturn memory(read) uwtable
define available_externally i32 @atoi(ptr noundef nonnull %0) #11 {
  %2 = alloca ptr, align 8
  store ptr %0, ptr %2, align 8
  %3 = load ptr, ptr %2, align 8
  %4 = call i64 @strtol(ptr noundef %3, ptr noundef null, i32 noundef 10) #12
  %5 = trunc i64 %4 to i32
  ret i32 %5
}

; Function Attrs: inlinehint nounwind uwtable
define internal void @uv__queue_init(ptr noundef %0) #9 {
  %2 = alloca ptr, align 8
  store ptr %0, ptr %2, align 8
  %3 = load ptr, ptr %2, align 8
  %4 = load ptr, ptr %2, align 8
  %5 = getelementptr inbounds nuw %struct.uv__queue, ptr %4, i32 0, i32 0
  store ptr %3, ptr %5, align 8
  %6 = load ptr, ptr %2, align 8
  %7 = load ptr, ptr %2, align 8
  %8 = getelementptr inbounds nuw %struct.uv__queue, ptr %7, i32 0, i32 1
  store ptr %6, ptr %8, align 8
  ret void
}

; Function Attrs: nounwind uwtable
define internal i32 @uv__use_io_uring(i32 noundef %0) #0 {
  %2 = alloca i32, align 4
  %3 = alloca i32, align 4
  %4 = alloca ptr, align 8
  %5 = alloca i32, align 4
  %6 = alloca i32, align 4
  %7 = alloca i32, align 4
  %8 = alloca i32, align 4
  store i32 %0, ptr %3, align 4
  call void @llvm.lifetime.start.p0(i64 8, ptr %4) #12
  call void @llvm.lifetime.start.p0(i64 4, ptr %5) #12
  %9 = load i32, ptr %3, align 4
  %10 = and i32 %9, 2
  %11 = icmp eq i32 0, %10
  br i1 %11, label %12, label %13

12:                                               ; preds = %1
  store i32 1, ptr %2, align 4
  store i32 1, ptr %6, align 4
  br label %39

13:                                               ; preds = %1
  %14 = call i32 @uv__kernel_version()
  %15 = icmp ult i32 %14, 330426
  br i1 %15, label %16, label %17

16:                                               ; preds = %13
  store i32 0, ptr %2, align 4
  store i32 1, ptr %6, align 4
  br label %39

17:                                               ; preds = %13
  %18 = load atomic i32, ptr @uv__use_io_uring.use_io_uring monotonic, align 4
  store i32 %18, ptr %7, align 4
  %19 = load i32, ptr %7, align 4
  store i32 %19, ptr %5, align 4
  %20 = load i32, ptr %5, align 4
  %21 = icmp eq i32 %20, 0
  br i1 %21, label %22, label %35

22:                                               ; preds = %17
  %23 = call ptr @getenv(ptr noundef @.str.24) #12
  store ptr %23, ptr %4, align 8
  %24 = load ptr, ptr %4, align 8
  %25 = icmp ne ptr %24, null
  br i1 %25, label %26, label %30

26:                                               ; preds = %22
  %27 = load ptr, ptr %4, align 8
  %28 = call i32 @atoi(ptr noundef %27) #13
  %29 = icmp sgt i32 %28, 0
  br label %30

30:                                               ; preds = %26, %22
  %31 = phi i1 [ false, %22 ], [ %29, %26 ]
  %32 = select i1 %31, i32 1, i32 -1
  store i32 %32, ptr %5, align 4
  %33 = load i32, ptr %5, align 4
  store i32 %33, ptr %8, align 4
  %34 = load i32, ptr %8, align 4
  store atomic i32 %34, ptr @uv__use_io_uring.use_io_uring monotonic, align 4
  br label %35

35:                                               ; preds = %30, %17
  %36 = load i32, ptr %5, align 4
  %37 = icmp sgt i32 %36, 0
  %38 = zext i1 %37 to i32
  store i32 %38, ptr %2, align 4
  store i32 1, ptr %6, align 4
  br label %39

39:                                               ; preds = %35, %16, %12
  call void @llvm.lifetime.end.p0(i64 4, ptr %5) #12
  call void @llvm.lifetime.end.p0(i64 8, ptr %4) #12
  %40 = load i32, ptr %2, align 4
  ret i32 %40
}

; Function Attrs: nounwind uwtable
define internal ptr @uv__iou_get_sqe(ptr noundef %0, ptr noundef %1, ptr noundef %2) #0 {
  %4 = alloca ptr, align 8
  %5 = alloca ptr, align 8
  %6 = alloca ptr, align 8
  %7 = alloca ptr, align 8
  %8 = alloca ptr, align 8
  %9 = alloca i32, align 4
  %10 = alloca i32, align 4
  %11 = alloca i32, align 4
  %12 = alloca i32, align 4
  %13 = alloca i32, align 4
  %14 = alloca i32, align 4
  store ptr %0, ptr %5, align 8
  store ptr %1, ptr %6, align 8
  store ptr %2, ptr %7, align 8
  call void @llvm.lifetime.start.p0(i64 8, ptr %8) #12
  call void @llvm.lifetime.start.p0(i64 4, ptr %9) #12
  call void @llvm.lifetime.start.p0(i64 4, ptr %10) #12
  call void @llvm.lifetime.start.p0(i64 4, ptr %11) #12
  call void @llvm.lifetime.start.p0(i64 4, ptr %12) #12
  %15 = load ptr, ptr %5, align 8
  %16 = getelementptr inbounds nuw %struct.uv__iou, ptr %15, i32 0, i32 14
  %17 = load i32, ptr %16, align 8
  %18 = icmp eq i32 %17, -2
  br i1 %18, label %19, label %43

19:                                               ; preds = %3
  %20 = load ptr, ptr %6, align 8
  %21 = getelementptr inbounds nuw %struct.uv_loop_s, ptr %20, i32 0, i32 6
  %22 = load i64, ptr %21, align 8
  %23 = and i64 %22, 4
  %24 = icmp ne i64 %23, 0
  br i1 %24, label %25, label %34

25:                                               ; preds = %19
  %26 = call i32 @uv__use_io_uring(i32 noundef 2)
  %27 = icmp ne i32 %26, 0
  br i1 %27, label %28, label %33

28:                                               ; preds = %25
  %29 = load ptr, ptr %6, align 8
  %30 = getelementptr inbounds nuw %struct.uv_loop_s, ptr %29, i32 0, i32 7
  %31 = load i32, ptr %30, align 8
  %32 = load ptr, ptr %5, align 8
  call void @uv__iou_init(i32 noundef %31, ptr noundef %32, i32 noundef 64, i32 noundef 2)
  br label %33

33:                                               ; preds = %28, %25
  br label %34

34:                                               ; preds = %33, %19
  %35 = load ptr, ptr %5, align 8
  %36 = getelementptr inbounds nuw %struct.uv__iou, ptr %35, i32 0, i32 14
  %37 = load i32, ptr %36, align 8
  %38 = icmp eq i32 %37, -2
  br i1 %38, label %39, label %42

39:                                               ; preds = %34
  %40 = load ptr, ptr %5, align 8
  %41 = getelementptr inbounds nuw %struct.uv__iou, ptr %40, i32 0, i32 14
  store i32 -1, ptr %41, align 8
  br label %42

42:                                               ; preds = %39, %34
  br label %43

43:                                               ; preds = %42, %3
  %44 = load ptr, ptr %5, align 8
  %45 = getelementptr inbounds nuw %struct.uv__iou, ptr %44, i32 0, i32 14
  %46 = load i32, ptr %45, align 8
  %47 = icmp eq i32 %46, -1
  br i1 %47, label %48, label %49

48:                                               ; preds = %43
  store ptr null, ptr %4, align 8
  store i32 1, ptr %13, align 4
  br label %112

49:                                               ; preds = %43
  %50 = load ptr, ptr %5, align 8
  %51 = getelementptr inbounds nuw %struct.uv__iou, ptr %50, i32 0, i32 0
  %52 = load ptr, ptr %51, align 8
  %53 = load atomic i32, ptr %52 acquire, align 4
  store i32 %53, ptr %14, align 4
  %54 = load i32, ptr %14, align 4
  store i32 %54, ptr %9, align 4
  %55 = load ptr, ptr %5, align 8
  %56 = getelementptr inbounds nuw %struct.uv__iou, ptr %55, i32 0, i32 1
  %57 = load ptr, ptr %56, align 8
  %58 = load i32, ptr %57, align 4
  store i32 %58, ptr %10, align 4
  %59 = load ptr, ptr %5, align 8
  %60 = getelementptr inbounds nuw %struct.uv__iou, ptr %59, i32 0, i32 2
  %61 = load i32, ptr %60, align 8
  store i32 %61, ptr %11, align 4
  %62 = load i32, ptr %9, align 4
  %63 = load i32, ptr %11, align 4
  %64 = and i32 %62, %63
  %65 = load i32, ptr %10, align 4
  %66 = add i32 %65, 1
  %67 = load i32, ptr %11, align 4
  %68 = and i32 %66, %67
  %69 = icmp eq i32 %64, %68
  br i1 %69, label %70, label %71

70:                                               ; preds = %49
  store ptr null, ptr %4, align 8
  store i32 1, ptr %13, align 4
  br label %112

71:                                               ; preds = %49
  %72 = load i32, ptr %10, align 4
  %73 = load i32, ptr %11, align 4
  %74 = and i32 %72, %73
  store i32 %74, ptr %12, align 4
  %75 = load ptr, ptr %5, align 8
  %76 = getelementptr inbounds nuw %struct.uv__iou, ptr %75, i32 0, i32 9
  %77 = load ptr, ptr %76, align 8
  store ptr %77, ptr %8, align 8
  %78 = load ptr, ptr %8, align 8
  %79 = load i32, ptr %12, align 4
  %80 = zext i32 %79 to i64
  %81 = getelementptr inbounds nuw %struct.uv__io_uring_sqe, ptr %78, i64 %80
  store ptr %81, ptr %8, align 8
  %82 = load ptr, ptr %8, align 8
  call void @llvm.memset.p0.i64(ptr align 8 %82, i8 0, i64 64, i1 false)
  %83 = load ptr, ptr %7, align 8
  %84 = ptrtoint ptr %83 to i64
  %85 = load ptr, ptr %8, align 8
  %86 = getelementptr inbounds nuw %struct.uv__io_uring_sqe, ptr %85, i32 0, i32 8
  store i64 %84, ptr %86, align 8
  %87 = load ptr, ptr %6, align 8
  %88 = load ptr, ptr %7, align 8
  %89 = getelementptr inbounds nuw %struct.uv_fs_s, ptr %88, i32 0, i32 21
  %90 = getelementptr inbounds nuw %struct.uv__work, ptr %89, i32 0, i32 2
  store ptr %87, ptr %90, align 8
  %91 = load ptr, ptr %7, align 8
  %92 = getelementptr inbounds nuw %struct.uv_fs_s, ptr %91, i32 0, i32 21
  %93 = getelementptr inbounds nuw %struct.uv__work, ptr %92, i32 0, i32 0
  store ptr null, ptr %93, align 8
  %94 = load ptr, ptr %7, align 8
  %95 = getelementptr inbounds nuw %struct.uv_fs_s, ptr %94, i32 0, i32 21
  %96 = getelementptr inbounds nuw %struct.uv__work, ptr %95, i32 0, i32 1
  store ptr null, ptr %96, align 8
  %97 = load ptr, ptr %7, align 8
  %98 = getelementptr inbounds nuw %struct.uv_fs_s, ptr %97, i32 0, i32 21
  %99 = getelementptr inbounds nuw %struct.uv__work, ptr %98, i32 0, i32 3
  call void @uv__queue_init(ptr noundef %99)
  br label %100

100:                                              ; preds = %71
  %101 = load ptr, ptr %6, align 8
  %102 = getelementptr inbounds nuw %struct.uv_loop_s, ptr %101, i32 0, i32 3
  %103 = load i32, ptr %102, align 8
  %104 = add i32 %103, 1
  store i32 %104, ptr %102, align 8
  br label %105

105:                                              ; preds = %100
  br label %106

106:                                              ; preds = %105
  %107 = load ptr, ptr %5, align 8
  %108 = getelementptr inbounds nuw %struct.uv__iou, ptr %107, i32 0, i32 15
  %109 = load i32, ptr %108, align 4
  %110 = add i32 %109, 1
  store i32 %110, ptr %108, align 4
  %111 = load ptr, ptr %8, align 8
  store ptr %111, ptr %4, align 8
  store i32 1, ptr %13, align 4
  br label %112

112:                                              ; preds = %106, %70, %48
  call void @llvm.lifetime.end.p0(i64 4, ptr %12) #12
  call void @llvm.lifetime.end.p0(i64 4, ptr %11) #12
  call void @llvm.lifetime.end.p0(i64 4, ptr %10) #12
  call void @llvm.lifetime.end.p0(i64 4, ptr %9) #12
  call void @llvm.lifetime.end.p0(i64 8, ptr %8) #12
  %113 = load ptr, ptr %4, align 8
  ret ptr %113
}