; Function Attrs: nounwind uwtable
define internal fastcc noundef ptr @uv__iou_get_sqe(ptr noundef captures(none) %0, ptr noundef %1, ptr noundef %2) unnamed_addr #0 {
  %4 = getelementptr inbounds nuw i8, ptr %0, i64 112
  %5 = load i32, ptr %4, align 8
  %6 = icmp eq i32 %5, -2
  br i1 %6, label %7, label %31

7:                                                ; preds = %3
  %8 = getelementptr inbounds nuw i8, ptr %1, i64 56
  %9 = load i64, ptr %8, align 8
  %10 = and i64 %9, 4
  %.not = icmp eq i64 %10, 0
  br i1 %.not, label %uv__use_io_uring.exit.thread, label %11

11:                                               ; preds = %7
  %12 = tail call i32 @uv__kernel_version()
  %13 = icmp ult i32 %12, 330426
  br i1 %13, label %uv__use_io_uring.exit.thread, label %14

14:                                               ; preds = %11
  %15 = load atomic i32, ptr @uv__use_io_uring.use_io_uring monotonic, align 4
  %16 = icmp eq i32 %15, 0
  br i1 %16, label %17, label %uv__use_io_uring.exit

17:                                               ; preds = %14
  %18 = tail call ptr @getenv(ptr noundef nonnull @.str.24) #17
  %.not.i = icmp eq ptr %18, null
  br i1 %.not.i, label %23, label %19

19:                                               ; preds = %17
  %20 = tail call i64 @strtol(ptr noundef nonnull captures(none) %18, ptr noundef null, i32 noundef 10) #17
  %21 = trunc i64 %20 to i32
  %.inv.i = icmp slt i32 %21, 1
  %22 = select i1 %.inv.i, i32 -1, i32 1
  br label %23

23:                                               ; preds = %19, %17
  %24 = phi i32 [ -1, %17 ], [ %22, %19 ]
  store atomic i32 %24, ptr @uv__use_io_uring.use_io_uring monotonic, align 4
  br label %uv__use_io_uring.exit

uv__use_io_uring.exit:                            ; preds = %14, %23
  %.08.i = phi i32 [ %24, %23 ], [ %15, %14 ]
  %25 = icmp slt i32 %.08.i, 1
  br i1 %25, label %uv__use_io_uring.exit.thread, label %26

26:                                               ; preds = %uv__use_io_uring.exit
  %27 = getelementptr inbounds nuw i8, ptr %1, i64 64
  %28 = load i32, ptr %27, align 8
  tail call fastcc void @uv__iou_init(i32 noundef %28, ptr noundef nonnull %0, i32 noundef 64, i32 noundef 2)
  br label %uv__use_io_uring.exit.thread

uv__use_io_uring.exit.thread:                     ; preds = %11, %uv__use_io_uring.exit, %26, %7
  %29 = load i32, ptr %4, align 8
  %30 = icmp eq i32 %29, -2
  br i1 %30, label %.thread, label %31

.thread:                                          ; preds = %uv__use_io_uring.exit.thread
  store i32 -1, ptr %4, align 8
  br label %64

31:                                               ; preds = %uv__use_io_uring.exit.thread, %3
  %32 = phi i32 [ %29, %uv__use_io_uring.exit.thread ], [ %5, %3 ]
  %33 = icmp eq i32 %32, -1
  br i1 %33, label %64, label %34

34:                                               ; preds = %31
  %35 = load ptr, ptr %0, align 8
  %36 = load atomic i32, ptr %35 acquire, align 4
  %37 = getelementptr inbounds nuw i8, ptr %0, i64 8
  %38 = load ptr, ptr %37, align 8
  %39 = load i32, ptr %38, align 4
  %40 = getelementptr inbounds nuw i8, ptr %0, i64 16
  %41 = load i32, ptr %40, align 8
  %42 = add i32 %39, 1
  %43 = xor i32 %42, %36
  %44 = and i32 %43, %41
  %45 = icmp eq i32 %44, 0
  br i1 %45, label %64, label %46

46:                                               ; preds = %34
  %47 = and i32 %41, %39
  %48 = getelementptr inbounds nuw i8, ptr %0, i64 72
  %49 = load ptr, ptr %48, align 8
  %50 = zext i32 %47 to i64
  %51 = getelementptr inbounds nuw %struct.uv__io_uring_sqe, ptr %49, i64 %50
  tail call void @llvm.memset.p0.i64(ptr noundef nonnull align 8 dereferenceable(64) %51, i8 0, i64 64, i1 false)
  %52 = ptrtoint ptr %2 to i64
  %53 = getelementptr inbounds nuw i8, ptr %51, i64 32
  store i64 %52, ptr %53, align 8
  %54 = getelementptr inbounds nuw i8, ptr %2, i64 336
  %55 = getelementptr inbounds nuw i8, ptr %2, i64 352
  store ptr %1, ptr %55, align 8
  %56 = getelementptr inbounds nuw i8, ptr %2, i64 360
  tail call void @llvm.memset.p0.i64(ptr noundef nonnull align 8 dereferenceable(16) %54, i8 0, i64 16, i1 false)
  store ptr %56, ptr %56, align 8
  %57 = getelementptr inbounds nuw i8, ptr %2, i64 368
  store ptr %56, ptr %57, align 8
  %58 = getelementptr inbounds nuw i8, ptr %1, i64 32
  %59 = load i32, ptr %58, align 8
  %60 = add i32 %59, 1
  store i32 %60, ptr %58, align 8
  %61 = getelementptr inbounds nuw i8, ptr %0, i64 116
  %62 = load i32, ptr %61, align 4
  %63 = add i32 %62, 1
  store i32 %63, ptr %61, align 4
  br label %64

64:                                               ; preds = %.thread, %34, %31, %46
  %.0 = phi ptr [ %51, %46 ], [ null, %31 ], [ null, %34 ], [ null, %.thread ]
  ret ptr %.0
}